; Function Attrs: mustprogress uwtable
define hidden noundef i64 @_ZNK17opencv_tensorflow10VersionDef12ByteSizeLongEv(ptr noundef nonnull align 8 dereferenceable(48) %0) unnamed_addr #3 align 2 {
  %2 = getelementptr inbounds nuw i8, ptr %0, i64 16
  %3 = tail call noundef i64 @_ZN6google8protobuf8internal14WireFormatLite9Int32SizeERKNS0_13RepeatedFieldIiEE(ptr noundef nonnull align 8 dereferenceable(16) %2)
  %.not = icmp eq i64 %3, 0
  br i1 %.not, label %13, label %4

4:                                                ; preds = %1
  %5 = shl i64 %3, 32
  %sext = ashr exact i64 %5, 32
  %6 = or i64 %sext, 1
  %7 = tail call range(i64 0, 65) i64 @llvm.ctlz.i64(i64 %6, i1 true)
  %8 = xor i64 %7, 63
  %9 = mul nuw nsw i64 %8, 9
  %10 = add nuw nsw i64 %9, 73
  %11 = lshr i64 %10, 6
  %12 = add nuw nsw i64 %11, 1
  br label %13

13:                                               ; preds = %4, %1
  %.0 = phi i64 [ %12, %4 ], [ 0, %1 ]
  %14 = trunc i64 %3 to i32
  %15 = getelementptr inbounds nuw i8, ptr %0, i64 32
  store atomic i32 %14, ptr %15 monotonic, align 8
  %16 = add i64 %.0, %3
  %17 = getelementptr inbounds nuw i8, ptr %0, i64 36
  %18 = load i32, ptr %17, align 4, !tbaa !35
  %.not11 = icmp eq i32 %18, 0
  br i1 %.not11, label %28, label %19

19:                                               ; preds = %13
  %20 = or i32 %18, 1
  %21 = sext i32 %20 to i64
  %22 = tail call range(i64 0, 65) i64 @llvm.ctlz.i64(i64 %21, i1 true)
  %23 = xor i64 %22, 63
  %24 = mul nuw nsw i64 %23, 9
  %25 = add nuw nsw i64 %24, 137
  %26 = lshr i64 %25, 6
  %27 = add i64 %26, %16
  br label %28

28:                                               ; preds = %19, %13
  %.1 = phi i64 [ %27, %19 ], [ %16, %13 ]
  %29 = getelementptr inbounds nuw i8, ptr %0, i64 40
  %30 = load i32, ptr %29, align 8, !tbaa !42
  %.not12 = icmp eq i32 %30, 0
  br i1 %.not12, label %40, label %31

31:                                               ; preds = %28
  %32 = or i32 %30, 1
  %33 = sext i32 %32 to i64
  %34 = tail call range(i64 0, 65) i64 @llvm.ctlz.i64(i64 %33, i1 true)
  %35 = xor i64 %34, 63
  %36 = mul nuw nsw i64 %35, 9
  %37 = add nuw nsw i64 %36, 137
  %38 = lshr i64 %37, 6
  %39 = add i64 %38, %.1
  br label %40

40:                                               ; preds = %31, %28
  %.2 = phi i64 [ %39, %31 ], [ %.1, %28 ]
  %41 = getelementptr inbounds nuw i8, ptr %0, i64 44
  %42 = tail call noundef i64 @_ZNK6google8protobuf7Message29MaybeComputeUnknownFieldsSizeEmPNS0_8internal10CachedSizeE(ptr noundef nonnull align 8 dereferenceable(16) %0, i64 noundef %.2, ptr noundef nonnull %41)
  ret i64 %42
}